; ModuleID = '10/229.c'
source_filename = "10/229.c"
target datalayout = "e-m:e-p270:32:32-p271:32:32-p272:64:64-i64:64-f80:128-n8:16:32:64-S128"
target triple = "x86_64-pc-linux-gnu"

@.str = private unnamed_addr constant [3 x i8] c"%d\00", align 1
@a = common dso_local global [110 x i32] zeroinitializer, align 16
@b = common dso_local global [110 x i32] zeroinitializer, align 16
@maxlen = common dso_local global [110 x i32] zeroinitializer, align 16

; Function Attrs: noinline nounwind uwtable
define dso_local void @main() #0 {
  %1 = alloca i32, align 4
  %2 = alloca i32, align 4
  %3 = alloca i32, align 4
  %4 = alloca i32, align 4
  %5 = alloca i32, align 4
  %6 = call i32 (i8*, ...) @__isoc99_scanf(i8* getelementptr inbounds ([3 x i8], [3 x i8]* @.str, i64 0, i64 0), i32* %3)
  store i32 1, i32* %1, align 4
  br label %7

7:                                                ; preds = %16, %0
  %8 = load i32, i32* %1, align 4
  %9 = load i32, i32* %3, align 4
  %10 = icmp sle i32 %8, %9
  br i1 %10, label %11, label %19

11:                                               ; preds = %7
  %12 = load i32, i32* %1, align 4
  %13 = sext i32 %12 to i64
  %14 = getelementptr inbounds [110 x i32], [110 x i32]* @a, i64 0, i64 %13
  %15 = call i32 (i8*, ...) @__isoc99_scanf(i8* getelementptr inbounds ([3 x i8], [3 x i8]* @.str, i64 0, i64 0), i32* %14)
  br label %16

16:                                               ; preds = %11
  %17 = load i32, i32* %1, align 4
  %18 = add nsw i32 %17, 1
  store i32 %18, i32* %1, align 4
  br label %7

19:                                               ; preds = %7
  store i32 1, i32* %1, align 4
  br label %20

20:                                               ; preds = %35, %19
  %21 = load i32, i32* %1, align 4
  %22 = load i32, i32* %3, align 4
  %23 = icmp sle i32 %21, %22
  br i1 %23, label %24, label %38

24:                                               ; preds = %20
  %25 = load i32, i32* %1, align 4
  %26 = sext i32 %25 to i64
  %27 = getelementptr inbounds [110 x i32], [110 x i32]* @a, i64 0, i64 %26
  %28 = load i32, i32* %27, align 4
  %29 = load i32, i32* %3, align 4
  %30 = add nsw i32 %29, 1
  %31 = load i32, i32* %1, align 4
  %32 = sub nsw i32 %30, %31
  %33 = sext i32 %32 to i64
  %34 = getelementptr inbounds [110 x i32], [110 x i32]* @b, i64 0, i64 %33
  store i32 %28, i32* %34, align 4
  br label %35

35:                                               ; preds = %24
  %36 = load i32, i32* %1, align 4
  %37 = add nsw i32 %36, 1
  store i32 %37, i32* %1, align 4
  br label %20

38:                                               ; preds = %20
  store i32 1, i32* getelementptr inbounds ([110 x i32], [110 x i32]* @maxlen, i64 0, i64 1), align 4
  store i32 2, i32* %1, align 4
  br label %39

39:                                               ; preds = %81, %38
  %40 = load i32, i32* %1, align 4
  %41 = load i32, i32* %3, align 4
  %42 = icmp sle i32 %40, %41
  br i1 %42, label %43, label %84

43:                                               ; preds = %39
  store i32 0, i32* %4, align 4
  store i32 1, i32* %2, align 4
  br label %44

44:                                               ; preds = %72, %43
  %45 = load i32, i32* %2, align 4
  %46 = load i32, i32* %1, align 4
  %47 = icmp slt i32 %45, %46
  br i1 %47, label %48, label %75

48:                                               ; preds = %44
  %49 = load i32, i32* %1, align 4
  %50 = sext i32 %49 to i64
  %51 = getelementptr inbounds [110 x i32], [110 x i32]* @b, i64 0, i64 %50
  %52 = load i32, i32* %51, align 4
  %53 = load i32, i32* %2, align 4
  %54 = sext i32 %53 to i64
  %55 = getelementptr inbounds [110 x i32], [110 x i32]* @b, i64 0, i64 %54
  %56 = load i32, i32* %55, align 4
  %57 = icmp sge i32 %52, %56
  br i1 %57, label %58, label %71

58:                                               ; preds = %48
  %59 = load i32, i32* %4, align 4
  %60 = load i32, i32* %2, align 4
  %61 = sext i32 %60 to i64
  %62 = getelementptr inbounds [110 x i32], [110 x i32]* @maxlen, i64 0, i64 %61
  %63 = load i32, i32* %62, align 4
  %64 = icmp slt i32 %59, %63
  br i1 %64, label %65, label %70

65:                                               ; preds = %58
  %66 = load i32, i32* %2, align 4
  %67 = sext i32 %66 to i64
  %68 = getelementptr inbounds [110 x i32], [110 x i32]* @maxlen, i64 0, i64 %67
  %69 = load i32, i32* %68, align 4
  store i32 %69, i32* %4, align 4
  br label %70

70:                                               ; preds = %65, %58
  br label %71

71:                                               ; preds = %70, %48
  br label %72

72:                                               ; preds = %71
  %73 = load i32, i32* %2, align 4
  %74 = add nsw i32 %73, 1
  store i32 %74, i32* %2, align 4
  br label %44

75:                                               ; preds = %44
  %76 = load i32, i32* %4, align 4
  %77 = add nsw i32 %76, 1
  %78 = load i32, i32* %1, align 4
  %79 = sext i32 %78 to i64
  %80 = getelementptr inbounds [110 x i32], [110 x i32]* @maxlen, i64 0, i64 %79
  store i32 %77, i32* %80, align 4
  br label %81

81:                                               ; preds = %75
  %82 = load i32, i32* %1, align 4
  %83 = add nsw i32 %82, 1
  store i32 %83, i32* %1, align 4
  br label %39

84:                                               ; preds = %39
  store i32 -1, i32* %5, align 4
  store i32 1, i32* %1, align 4
  br label %85

85:                                               ; preds = %102, %84
  %86 = load i32, i32* %1, align 4
  %87 = load i32, i32* %3, align 4
  %88 = icmp sle i32 %86, %87
  br i1 %88, label %89, label %105

89:                                               ; preds = %85
  %90 = load i32, i32* %5, align 4
  %91 = load i32, i32* %1, align 4
  %92 = sext i32 %91 to i64
  %93 = getelementptr inbounds [110 x i32], [110 x i32]* @maxlen, i64 0, i64 %92
  %94 = load i32, i32* %93, align 4
  %95 = icmp slt i32 %90, %94
  br i1 %95, label %96, label %101

96:                                               ; preds = %89
  %97 = load i32, i32* %1, align 4
  %98 = sext i32 %97 to i64
  %99 = getelementptr inbounds [110 x i32], [110 x i32]* @maxlen, i64 0, i64 %98
  %100 = load i32, i32* %99, align 4
  store i32 %100, i32* %5, align 4
  br label %101

101:                                              ; preds = %96, %89
  br label %102

102:                                              ; preds = %101
  %103 = load i32, i32* %1, align 4
  %104 = add nsw i32 %103, 1
  store i32 %104, i32* %1, align 4
  br label %85

105:                                              ; preds = %85
  %106 = load i32, i32* %5, align 4
  %107 = call i32 (i8*, ...) @printf(i8* getelementptr inbounds ([3 x i8], [3 x i8]* @.str, i64 0, i64 0), i32 %106)
  ret void
}

declare dso_local i32 @__isoc99_scanf(i8*, ...) #1

declare dso_local i32 @printf(i8*, ...) #1


!llvm.module.flags = !{!0}
!llvm.ident = !{!1}

!0 = !{i32 1, !"wchar_size", i32 4}
!1 = !{!"clang version 10.0.0-4ubuntu1 "}
